	.file	"garbage-collector.c"
	.text
.Ltext0:
	.file 0 "/home/sam/garbage-collector" "garbage-collector.c"
	.local	base
	.comm	base,16,16
	.section	.data.rel.local,"aw"
	.align 8
	.type	freep, @object
	.size	freep, 8
freep:
	.quad	base
	.local	usedp
	.comm	usedp,8,8
	.local	stack_bottom
	.comm	stack_bottom,8,8
	.text
	.type	add_to_free_list, @function
add_to_free_list:
.LFB0:
	.file 1 "garbage-collector.c"
	.loc 1 24 1
	.cfi_startproc
	endbr64
	pushq	%rbp
	.cfi_def_cfa_offset 16
	.cfi_offset 6, -16
	movq	%rsp, %rbp
	.cfi_def_cfa_register 6
	movq	%rdi, -24(%rbp)
	.loc 1 27 12
	movq	freep(%rip), %rax
	movq	%rax, -8(%rbp)
	.loc 1 27 5
	jmp	.L2
.L5:
	.loc 1 28 19
	movq	-8(%rbp), %rax
	movq	8(%rax), %rax
	.loc 1 28 12
	cmpq	%rax, -8(%rbp)
	jb	.L3
	.loc 1 28 26 discriminator 1
	movq	-24(%rbp), %rax
	cmpq	-8(%rbp), %rax
	ja	.L4
	.loc 1 28 46 discriminator 2
	movq	-8(%rbp), %rax
	movq	8(%rax), %rax
	.loc 1 28 37 discriminator 2
	cmpq	%rax, -24(%rbp)
	jb	.L4
.L3:
	.loc 1 27 50 discriminator 2
	movq	-8(%rbp), %rax
	movq	8(%rax), %rax
	movq	%rax, -8(%rbp)
.L2:
	.loc 1 27 21 discriminator 1
	movq	-24(%rbp), %rax
	cmpq	-8(%rbp), %rax
	jbe	.L5
	.loc 1 27 39 discriminator 3
	movq	-8(%rbp), %rax
	movq	8(%rax), %rax
	.loc 1 27 21 discriminator 3
	cmpq	%rax, -24(%rbp)
	jnb	.L5
.L4:
	.loc 1 31 16
	movq	-24(%rbp), %rax
	movq	(%rax), %rax
	.loc 1 31 12
	salq	$4, %rax
	movq	%rax, %rdx
	movq	-24(%rbp), %rax
	addq	%rax, %rdx
	.loc 1 31 27
	movq	-8(%rbp), %rax
	movq	8(%rax), %rax
	.loc 1 31 8
	cmpq	%rax, %rdx
	jne	.L6
	.loc 1 32 18
	movq	-24(%rbp), %rax
	movq	(%rax), %rdx
	.loc 1 32 22
	movq	-8(%rbp), %rax
	movq	8(%rax), %rax
	.loc 1 32 28
	movq	(%rax), %rax
	.loc 1 32 18
	addq	%rax, %rdx
	movq	-24(%rbp), %rax
	movq	%rdx, (%rax)
	.loc 1 33 21
	movq	-8(%rbp), %rax
	movq	8(%rax), %rax
	.loc 1 33 27
	movq	8(%rax), %rdx
	.loc 1 33 18
	movq	-24(%rbp), %rax
	movq	%rdx, 8(%rax)
	jmp	.L7
.L6:
	.loc 1 35 21
	movq	-8(%rbp), %rax
	movq	8(%rax), %rdx
	.loc 1 35 18
	movq	-24(%rbp), %rax
	movq	%rdx, 8(%rax)
.L7:
	.loc 1 37 14
	movq	-8(%rbp), %rax
	movq	(%rax), %rax
	.loc 1 37 11
	salq	$4, %rax
	movq	%rax, %rdx
	movq	-8(%rbp), %rax
	addq	%rdx, %rax
	.loc 1 37 8
	cmpq	%rax, -24(%rbp)
	jne	.L8
	.loc 1 38 17
	movq	-8(%rbp), %rax
	movq	(%rax), %rdx
	.loc 1 38 22
	movq	-24(%rbp), %rax
	movq	(%rax), %rax
	.loc 1 38 17
	addq	%rax, %rdx
	movq	-8(%rbp), %rax
	movq	%rdx, (%rax)
	.loc 1 39 21
	movq	-24(%rbp), %rax
	movq	8(%rax), %rdx
	.loc 1 39 17
	movq	-8(%rbp), %rax
	movq	%rdx, 8(%rax)
	jmp	.L9
.L8:
	.loc 1 41 17
	movq	-8(%rbp), %rax
	movq	-24(%rbp), %rdx
	movq	%rdx, 8(%rax)
.L9:
	.loc 1 43 11
	movq	-8(%rbp), %rax
	movq	%rax, freep(%rip)
	.loc 1 44 1
	nop
	popq	%rbp
	.cfi_def_cfa 7, 8
	ret
	.cfi_endproc
.LFE0:
	.size	add_to_free_list, .-add_to_free_list
	.section	.rodata
.LC0:
	.string	"Asking for more memory"
	.text
	.type	morecore, @function
morecore:
.LFB1:
	.loc 1 53 1
	.cfi_startproc
	endbr64
	pushq	%rbp
	.cfi_def_cfa_offset 16
	.cfi_offset 6, -16
	movq	%rsp, %rbp
	.cfi_def_cfa_register 6
	subq	$32, %rsp
	movq	%rdi, -24(%rbp)
	.loc 1 56 5
	leaq	.LC0(%rip), %rax
	movq	%rax, %rdi
	call	puts@PLT
	.loc 1 58 8
	cmpq	$4096, -24(%rbp)
	jbe	.L11
	.loc 1 59 19
	movq	$256, -24(%rbp)
.L11:
	.loc 1 61 30
	movq	-24(%rbp), %rax
	salq	$4, %rax
	.loc 1 61 15
	movq	%rax, %rdi
	call	sbrk@PLT
	movq	%rax, -16(%rbp)
	.loc 1 61 8
	cmpq	$-1, -16(%rbp)
	jne	.L12
	.loc 1 62 16
	movl	$0, %eax
	jmp	.L13
.L12:
	.loc 1 64 8
	movq	-16(%rbp), %rax
	movq	%rax, -8(%rbp)
	.loc 1 65 14
	movq	-8(%rbp), %rax
	movq	-24(%rbp), %rdx
	movq	%rdx, (%rax)
	.loc 1 66 5
	movq	-8(%rbp), %rax
	movq	%rax, %rdi
	call	add_to_free_list
	.loc 1 67 12
	movq	freep(%rip), %rax
.L13:
	.loc 1 68 1
	leave
	.cfi_def_cfa 7, 8
	ret
	.cfi_endproc
.LFE1:
	.size	morecore, .-morecore
	.section	.rodata
.LC1:
	.string	"Allocating %ld memory\n"
.LC2:
	.string	"Using a block of %d size\n"
	.text
	.globl	GC_malloc
	.type	GC_malloc, @function
GC_malloc:
.LFB2:
	.loc 1 75 1
	.cfi_startproc
	endbr64
	pushq	%rbp
	.cfi_def_cfa_offset 16
	.cfi_offset 6, -16
	movq	%rsp, %rbp
	.cfi_def_cfa_register 6
	subq	$48, %rsp
	movq	%rdi, -40(%rbp)
	.loc 1 76 5
	movq	-40(%rbp), %rax
	movq	%rax, %rsi
	leaq	.LC1(%rip), %rax
	movq	%rax, %rdi
	movl	$0, %eax
	call	printf@PLT
	.loc 1 80 48
	movq	-40(%rbp), %rax
	addq	$15, %rax
	.loc 1 80 53
	shrq	$4, %rax
	.loc 1 80 15
	addq	$1, %rax
	movq	%rax, -8(%rbp)
	.loc 1 81 5
	movq	-8(%rbp), %rax
	movq	%rax, %rsi
	leaq	.LC2(%rip), %rax
	movq	%rax, %rdi
	movl	$0, %eax
	call	printf@PLT
	.loc 1 82 11
	movq	freep(%rip), %rax
	movq	%rax, -16(%rbp)
	.loc 1 84 12
	movq	-16(%rbp), %rax
	movq	8(%rax), %rax
	movq	%rax, -24(%rbp)
.L22:
	.loc 1 85 14
	movq	-24(%rbp), %rax
	movq	(%rax), %rax
	.loc 1 85 12
	cmpq	%rax, -8(%rbp)
	ja	.L15
	.loc 1 86 18
	movq	-24(%rbp), %rax
	movq	(%rax), %rax
	.loc 1 86 16
	cmpq	%rax, -8(%rbp)
	jne	.L16
	.loc 1 87 32
	movq	-24(%rbp), %rax
	movq	8(%rax), %rdx
	.loc 1 87 29
	movq	-16(%rbp), %rax
	movq	%rdx, 8(%rax)
	jmp	.L17
.L16:
	.loc 1 89 25
	movq	-24(%rbp), %rax
	movq	(%rax), %rax
	subq	-8(%rbp), %rax
	movq	-24(%rbp), %rdx
	movq	%rax, (%rdx)
	.loc 1 90 23
	movq	-24(%rbp), %rax
	movq	(%rax), %rax
	.loc 1 90 19
	salq	$4, %rax
	addq	%rax, -24(%rbp)
	.loc 1 91 25
	movq	-24(%rbp), %rax
	movq	-8(%rbp), %rdx
	movq	%rdx, (%rax)
.L17:
	.loc 1 94 19
	movq	-16(%rbp), %rax
	movq	%rax, freep(%rip)
	.loc 1 97 23
	movq	usedp(%rip), %rax
	.loc 1 97 16
	testq	%rax, %rax
	jne	.L18
	.loc 1 98 33
	movq	-24(%rbp), %rax
	movq	-24(%rbp), %rdx
	movq	%rdx, 8(%rax)
	.loc 1 98 26
	movq	-24(%rbp), %rax
	movq	8(%rax), %rax
	.loc 1 98 23
	movq	%rax, usedp(%rip)
	jmp	.L19
.L18:
	.loc 1 100 32
	movq	usedp(%rip), %rax
	movq	8(%rax), %rdx
	.loc 1 100 25
	movq	-24(%rbp), %rax
	movq	%rdx, 8(%rax)
	.loc 1 101 22
	movq	usedp(%rip), %rax
	.loc 1 101 29
	movq	-24(%rbp), %rdx
	movq	%rdx, 8(%rax)
.L19:
	.loc 1 104 20
	movq	-24(%rbp), %rax
	addq	$16, %rax
	jmp	.L20
.L15:
	.loc 1 106 15
	movq	freep(%rip), %rax
	.loc 1 106 12
	cmpq	%rax, -24(%rbp)
	jne	.L21
	.loc 1 107 17
	movq	-8(%rbp), %rax
	movq	%rax, %rdi
	call	morecore
	movq	%rax, -24(%rbp)
	.loc 1 108 16
	cmpq	$0, -24(%rbp)
	jne	.L21
	.loc 1 109 24
	movl	$0, %eax
	jmp	.L20
.L21:
	.loc 1 84 34
	movq	-24(%rbp), %rax
	movq	%rax, -16(%rbp)
	.loc 1 84 41
	movq	-24(%rbp), %rax
	movq	8(%rax), %rax
	movq	%rax, -24(%rbp)
	.loc 1 85 12
	jmp	.L22
.L20:
	.loc 1 112 1
	leave
	.cfi_def_cfa 7, 8
	ret
	.cfi_endproc
.LFE2:
	.size	GC_malloc, .-GC_malloc
	.section	.rodata
.LC3:
	.string	"Marking bp->next as used\n"
	.text
	.type	scan_region, @function
scan_region:
.LFB3:
	.loc 1 122 1
	.cfi_startproc
	endbr64
	pushq	%rbp
	.cfi_def_cfa_offset 16
	.cfi_offset 6, -16
	movq	%rsp, %rbp
	.cfi_def_cfa_register 6
	subq	$32, %rsp
	movq	%rdi, -24(%rbp)
	movq	%rsi, -32(%rbp)
	.loc 1 125 5
	jmp	.L24
.L28:
.LBB2:
	.loc 1 126 23
	movq	-24(%rbp), %rax
	movq	(%rax), %rax
	movq	%rax, -8(%rbp)
	.loc 1 127 12
	movq	usedp(%rip), %rax
	movq	%rax, -16(%rbp)
.L27:
	.loc 1 130 20
	movq	-16(%rbp), %rax
	leaq	16(%rax), %rdx
	.loc 1 130 24
	movq	-8(%rbp), %rax
	.loc 1 130 16
	cmpq	%rax, %rdx
	ja	.L25
	.loc 1 131 28 discriminator 1
	movq	-16(%rbp), %rax
	movq	(%rax), %rax
	.loc 1 131 24 discriminator 1
	addq	$1, %rax
	salq	$4, %rax
	movq	%rax, %rdx
	movq	-16(%rbp), %rax
	addq	%rax, %rdx
	.loc 1 131 35 discriminator 1
	movq	-8(%rbp), %rax
	.loc 1 130 29 discriminator 1
	cmpq	%rax, %rdx
	jbe	.L25
	.loc 1 133 51
	movq	-16(%rbp), %rax
	movq	8(%rax), %rax
	.loc 1 133 59
	orq	$1, %rax
	movq	%rax, %rdx
	.loc 1 133 30
	movq	-16(%rbp), %rax
	movq	%rdx, 8(%rax)
	.loc 1 134 21
	movq	-16(%rbp), %rax
	movq	8(%rax), %rax
	movq	%rax, %rsi
	leaq	.LC3(%rip), %rax
	movq	%rax, %rdi
	movl	$0, %eax
	call	printf@PLT
	.loc 1 135 21
	jmp	.L26
.L25:
	.loc 1 137 24
	movq	-16(%rbp), %rax
	movq	8(%rax), %rax
	movq	%rax, %rdx
	movabsq	$281474976710652, %rax
	andq	%rdx, %rax
	.loc 1 137 22
	movq	%rax, -16(%rbp)
	.loc 1 137 41
	movq	usedp(%rip), %rax
	cmpq	%rax, -16(%rbp)
	jne	.L27
.L26:
.LBE2:
	.loc 1 125 24
	addq	$8, -24(%rbp)
.L24:
	.loc 1 125 15 discriminator 1
	movq	-24(%rbp), %rax
	cmpq	-32(%rbp), %rax
	jb	.L28
	.loc 1 139 1
	nop
	nop
	leave
	.cfi_def_cfa 7, 8
	ret
	.cfi_endproc
.LFE3:
	.size	scan_region, .-scan_region
	.section	.rodata
.LC4:
	.string	"Scanning registers"
.LC5:
	.string	"Scanning register %d\n"
.LC6:
	.string	"%p %p %p"
.LC7:
	.string	"Loop iteration"
.LC8:
	.string	"Skipping already marked"
.LC9:
	.string	"%d register data\n"
.LC10:
	.string	"Checking %p - %p %p\n"
.LC11:
	.string	"Found pointer in register %d\n"
	.text
	.type	scan_register, @function
scan_register:
.LFB4:
	.loc 1 142 21
	.cfi_startproc
	endbr64
	pushq	%rbp
	.cfi_def_cfa_offset 16
	.cfi_offset 6, -16
	movq	%rsp, %rbp
	.cfi_def_cfa_register 6
	subq	$48, %rsp
	.loc 1 143 9
	movl	$0, -44(%rbp)
	.loc 1 147 5
	leaq	.LC4(%rip), %rax
	movq	%rax, %rdi
	call	puts@PLT
	.loc 1 149 5
#APP
# 149 "garbage-collector.c" 1
	leaq %rax,%rax
# 0 "" 2
#NO_APP
	movq	%rax, 8+registers.2(%rip)
	.loc 1 150 5
#APP
# 150 "garbage-collector.c" 1
	leaq %rbx,%rax
# 0 "" 2
#NO_APP
	movq	%rax, registers.2(%rip)
	.loc 1 151 5
#APP
# 151 "garbage-collector.c" 1
	leaq %rdx,%rax
# 0 "" 2
#NO_APP
	movq	%rax, 16+registers.2(%rip)
	.loc 1 152 5
#APP
# 152 "garbage-collector.c" 1
	leaq %rdi,%rax
# 0 "" 2
#NO_APP
	movq	%rax, 24+registers.2(%rip)
	.loc 1 153 5
#APP
# 153 "garbage-collector.c" 1
	leaq %rsi,%rax
# 0 "" 2
#NO_APP
	movq	%rax, 32+registers.2(%rip)
	.loc 1 154 5
#APP
# 154 "garbage-collector.c" 1
	leaq %rbp,%rax
# 0 "" 2
#NO_APP
	movq	%rax, 40+registers.2(%rip)
.LBB3:
	.loc 1 157 14
	movl	$0, -48(%rbp)
	.loc 1 157 5
	jmp	.L30
.L40:
	.loc 1 158 9
	movl	-48(%rbp), %eax
	movl	%eax, %esi
	leaq	.LC5(%rip), %rax
	movq	%rax, %rdi
	movl	$0, %eax
	call	printf@PLT
	.loc 1 159 9
	movq	usedp(%rip), %rcx
	.loc 1 159 32
	movq	usedp(%rip), %rax
	movq	8(%rax), %rax
	movq	%rax, %rdx
	.loc 1 159 9
	movabsq	$281474976710652, %rax
	andq	%rax, %rdx
	movq	-32(%rbp), %rax
	movq	%rax, %rsi
	leaq	.LC6(%rip), %rax
	movq	%rax, %rdi
	movl	$0, %eax
	call	printf@PLT
	.loc 1 160 19
	movq	usedp(%rip), %rax
	movq	8(%rax), %rax
	movq	%rax, %rdx
	movabsq	$281474976710652, %rax
	andq	%rdx, %rax
	.loc 1 160 17
	movq	%rax, -32(%rbp)
	.loc 1 160 9
	jmp	.L31
.L39:
.LBB4:
	.loc 1 161 13
	leaq	.LC7(%rip), %rax
	movq	%rax, %rdi
	movl	$0, %eax
	call	printf@PLT
	.loc 1 162 35
	movq	-32(%rbp), %rax
	movq	8(%rax), %rax
	.loc 1 162 42
	andl	$1, %eax
	.loc 1 162 16
	testq	%rax, %rax
	je	.L32
	.loc 1 163 17 discriminator 1
	leaq	.LC8(%rip), %rax
	movq	%rax, %rdi
	movl	$0, %eax
	call	printf@PLT
	.loc 1 164 16 discriminator 1
	jmp	.L33
.L32:
	.loc 1 166 27
	movl	-48(%rbp), %eax
	cltq
	leaq	0(,%rax,8), %rdx
	leaq	registers.2(%rip), %rax
	movq	(%rdx,%rax), %rax
	movq	%rax, -16(%rbp)
	.loc 1 167 13
	movq	-16(%rbp), %rax
	movq	%rax, %rsi
	leaq	.LC9(%rip), %rax
	movq	%rax, %rdi
	movl	$0, %eax
	call	printf@PLT
	.loc 1 169 21
	movq	-32(%rbp), %rax
	addq	$16, %rax
	movq	%rax, -40(%rbp)
	.loc 1 169 13
	jmp	.L34
.L38:
.LBB5:
	.loc 1 172 31
	movq	-40(%rbp), %rax
	movq	(%rax), %rax
	movq	%rax, -8(%rbp)
	.loc 1 173 22
	movq	-32(%rbp), %rax
	movq	8(%rax), %rax
	movq	%rax, %rdx
	movabsq	$281474976710652, %rax
	andq	%rdx, %rax
	.loc 1 173 20
	movq	%rax, -24(%rbp)
	.loc 1 174 68
	movq	-24(%rbp), %rax
	movq	(%rax), %rax
	.loc 1 174 64
	addq	$1, %rax
	salq	$4, %rax
	movq	%rax, %rdx
	.loc 1 174 17
	movq	-24(%rbp), %rax
	addq	%rax, %rdx
	movq	-24(%rbp), %rax
	addq	$16, %rax
	movq	-16(%rbp), %rcx
	movq	%rax, %rsi
	leaq	.LC10(%rip), %rax
	movq	%rax, %rdi
	movl	$0, %eax
	call	printf@PLT
.L37:
	.loc 1 176 24
	movq	-24(%rbp), %rax
	cmpq	-32(%rbp), %rax
	je	.L35
	.loc 1 177 28 discriminator 1
	movq	-24(%rbp), %rax
	leaq	16(%rax), %rdx
	.loc 1 177 32 discriminator 1
	movq	-16(%rbp), %rax
	.loc 1 176 34 discriminator 1
	cmpq	%rax, %rdx
	ja	.L35
	.loc 1 178 36
	movq	-24(%rbp), %rax
	movq	(%rax), %rax
	.loc 1 178 32
	addq	$1, %rax
	salq	$4, %rax
	movq	%rax, %rdx
	movq	-24(%rbp), %rax
	addq	%rax, %rdx
	.loc 1 178 43
	movq	-16(%rbp), %rax
	.loc 1 177 49
	cmpq	%rax, %rdx
	jbe	.L35
	.loc 1 179 25
	movl	-48(%rbp), %eax
	movl	%eax, %esi
	leaq	.LC11(%rip), %rax
	movq	%rax, %rdi
	movl	$0, %eax
	call	printf@PLT
	.loc 1 180 55
	movq	-24(%rbp), %rax
	movq	8(%rax), %rax
	.loc 1 180 63
	orq	$1, %rax
	movq	%rax, %rdx
	.loc 1 180 34
	movq	-24(%rbp), %rax
	movq	%rdx, 8(%rax)
	.loc 1 181 25
	jmp	.L36
.L35:
	.loc 1 183 32
	movq	-24(%rbp), %rax
	movq	8(%rax), %rax
	movq	%rax, %rdx
	movabsq	$281474976710652, %rax
	andq	%rdx, %rax
	.loc 1 183 30
	movq	%rax, -24(%rbp)
	.loc 1 183 49
	movq	-24(%rbp), %rax
	cmpq	-32(%rbp), %rax
	jne	.L37
.L36:
.LBE5:
	.loc 1 171 20
	addq	$8, -40(%rbp)
.L34:
	.loc 1 170 31
	movq	-32(%rbp), %rax
	movq	(%rax), %rax
	.loc 1 170 38
	addq	$1, %rax
	salq	$4, %rax
	movq	%rax, %rdx
	movq	-32(%rbp), %rax
	addq	%rdx, %rax
	.loc 1 170 21
	cmpq	%rax, -40(%rbp)
	jb	.L38
.L33:
.LBE4:
	.loc 1 160 57 discriminator 2
	movq	-32(%rbp), %rax
	movq	8(%rax), %rax
	movq	%rax, %rdx
	movabsq	$281474976710652, %rax
	andq	%rdx, %rax
	.loc 1 160 55 discriminator 2
	movq	%rax, -32(%rbp)
.L31:
	.loc 1 160 42 discriminator 1
	movq	usedp(%rip), %rax
	cmpq	%rax, -32(%rbp)
	jne	.L39
	.loc 1 157 59 discriminator 2
	addl	$1, -48(%rbp)
.L30:
	.loc 1 157 43 discriminator 1
	cmpl	$5, -48(%rbp)
	jle	.L40
.LBE3:
	.loc 1 188 1
	nop
	nop
	leave
	.cfi_def_cfa 7, 8
	ret
	.cfi_endproc
.LFE4:
	.size	scan_register, .-scan_register
	.section	.rodata
.LC12:
	.string	"Scanning heap"
	.text
	.type	scan_heap, @function
scan_heap:
.LFB5:
	.loc 1 195 1
	.cfi_startproc
	endbr64
	pushq	%rbp
	.cfi_def_cfa_offset 16
	.cfi_offset 6, -16
	movq	%rsp, %rbp
	.cfi_def_cfa_register 6
	subq	$32, %rsp
	.loc 1 198 5
	leaq	.LC12(%rip), %rax
	movq	%rax, %rdi
	call	puts@PLT
	.loc 1 200 15
	movq	usedp(%rip), %rax
	movq	8(%rax), %rax
	movq	%rax, %rdx
	movabsq	$281474976710652, %rax
	andq	%rdx, %rax
	.loc 1 200 13
	movq	%rax, -24(%rbp)
	.loc 1 200 5
	jmp	.L42
.L50:
	.loc 1 201 32
	movq	-24(%rbp), %rax
	movq	8(%rax), %rax
	.loc 1 201 39
	andl	$1, %eax
	.loc 1 201 12
	testq	%rax, %rax
	je	.L51
	.loc 1 203 17
	movq	-24(%rbp), %rax
	addq	$16, %rax
	movq	%rax, -32(%rbp)
	.loc 1 203 9
	jmp	.L45
.L49:
.LBB6:
	.loc 1 206 27
	movq	-32(%rbp), %rax
	movq	(%rax), %rax
	movq	%rax, -8(%rbp)
	.loc 1 207 18
	movq	-24(%rbp), %rax
	movq	8(%rax), %rax
	movq	%rax, %rdx
	movabsq	$281474976710652, %rax
	andq	%rdx, %rax
	.loc 1 207 16
	movq	%rax, -16(%rbp)
.L48:
	.loc 1 209 20
	movq	-16(%rbp), %rax
	cmpq	-24(%rbp), %rax
	je	.L46
	.loc 1 210 24 discriminator 1
	movq	-16(%rbp), %rax
	leaq	16(%rax), %rdx
	.loc 1 210 28 discriminator 1
	movq	-8(%rbp), %rax
	.loc 1 209 30 discriminator 1
	cmpq	%rax, %rdx
	ja	.L46
	.loc 1 211 32
	movq	-16(%rbp), %rax
	movq	(%rax), %rax
	.loc 1 211 28
	addq	$1, %rax
	salq	$4, %rax
	movq	%rax, %rdx
	movq	-16(%rbp), %rax
	addq	%rax, %rdx
	.loc 1 211 39
	movq	-8(%rbp), %rax
	.loc 1 210 33
	cmpq	%rax, %rdx
	jbe	.L46
	.loc 1 212 51
	movq	-16(%rbp), %rax
	movq	8(%rax), %rax
	.loc 1 212 59
	orq	$1, %rax
	movq	%rax, %rdx
	.loc 1 212 30
	movq	-16(%rbp), %rax
	movq	%rdx, 8(%rax)
	.loc 1 213 21
	jmp	.L47
.L46:
	.loc 1 215 28
	movq	-16(%rbp), %rax
	movq	8(%rax), %rax
	movq	%rax, %rdx
	movabsq	$281474976710652, %rax
	andq	%rdx, %rax
	.loc 1 215 26
	movq	%rax, -16(%rbp)
	.loc 1 215 45
	movq	-16(%rbp), %rax
	cmpq	-24(%rbp), %rax
	jne	.L48
.L47:
.LBE6:
	.loc 1 205 16
	addq	$8, -32(%rbp)
.L45:
	.loc 1 204 27
	movq	-24(%rbp), %rax
	movq	(%rax), %rax
	.loc 1 204 34
	addq	$1, %rax
	salq	$4, %rax
	movq	%rax, %rdx
	movq	-24(%rbp), %rax
	addq	%rdx, %rax
	.loc 1 204 17
	cmpq	%rax, -32(%rbp)
	jb	.L49
	jmp	.L44
.L51:
	.loc 1 202 13
	nop
.L44:
	.loc 1 200 53 discriminator 2
	movq	-24(%rbp), %rax
	movq	8(%rax), %rax
	movq	%rax, %rdx
	movabsq	$281474976710652, %rax
	andq	%rdx, %rax
	.loc 1 200 51 discriminator 2
	movq	%rax, -24(%rbp)
.L42:
	.loc 1 200 38 discriminator 1
	movq	usedp(%rip), %rax
	cmpq	%rax, -24(%rbp)
	jne	.L50
	.loc 1 218 1
	nop
	nop
	leave
	.cfi_def_cfa 7, 8
	ret
	.cfi_endproc
.LFE5:
	.size	scan_heap, .-scan_heap
	.section	.rodata
.LC13:
	.string	"r"
.LC14:
	.string	"/proc/self/stat"
.LC15:
	.string	"garbage-collector.c"
.LC16:
	.string	"statfp != NULL"
	.align 8
.LC17:
	.string	"%*d %*s %*c %*d %*d %*d %*d %*d %*u %*lu %*lu %*lu %*lu %*lu %*lu %*ld %*ld %*ld %*ld %*ld %*ld %*llu %*lu %*ld %*lu %*lu %*lu %lu"
.LC18:
	.string	"%p stack bottom\n"
	.text
	.globl	GC_init
	.type	GC_init, @function
GC_init:
.LFB6:
	.loc 1 227 1
	.cfi_startproc
	endbr64
	pushq	%rbp
	.cfi_def_cfa_offset 16
	.cfi_offset 6, -16
	movq	%rsp, %rbp
	.cfi_def_cfa_register 6
	subq	$16, %rsp
	.loc 1 231 9
	movl	initted.1(%rip), %eax
	.loc 1 231 8
	testl	%eax, %eax
	jne	.L56
	.loc 1 234 13
	movl	$1, initted.1(%rip)
	.loc 1 236 14
	leaq	.LC13(%rip), %rax
	movq	%rax, %rsi
	leaq	.LC14(%rip), %rax
	movq	%rax, %rdi
	call	fopen@PLT
	movq	%rax, -8(%rbp)
	.loc 1 237 5
	cmpq	$0, -8(%rbp)
	jne	.L55
	.loc 1 237 5 is_stmt 0 discriminator 1
	leaq	__PRETTY_FUNCTION__.0(%rip), %rax
	movq	%rax, %rcx
	movl	$237, %edx
	leaq	.LC15(%rip), %rax
	movq	%rax, %rsi
	leaq	.LC16(%rip), %rax
	movq	%rax, %rdi
	call	__assert_fail@PLT
.L55:
	.loc 1 238 5 is_stmt 1
	movq	-8(%rbp), %rax
	leaq	stack_bottom(%rip), %rdx
	leaq	.LC17(%rip), %rcx
	movq	%rcx, %rsi
	movq	%rax, %rdi
	movl	$0, %eax
	call	__isoc99_fscanf@PLT
	.loc 1 243 5
	movq	-8(%rbp), %rax
	movq	%rax, %rdi
	call	fclose@PLT
	.loc 1 244 5
	movq	stack_bottom(%rip), %rax
	movq	%rax, %rsi
	leaq	.LC18(%rip), %rax
	movq	%rax, %rdi
	movl	$0, %eax
	call	printf@PLT
	.loc 1 246 11
	movq	$0, usedp(%rip)
	.loc 1 247 23
	leaq	base(%rip), %rax
	movq	%rax, freep(%rip)
	.loc 1 247 15
	leaq	base(%rip), %rax
	movq	%rax, 8+base(%rip)
	.loc 1 248 15
	movq	$0, base(%rip)
	jmp	.L52
.L56:
	.loc 1 232 9
	nop
.L52:
	.loc 1 249 1
	leave
	.cfi_def_cfa 7, 8
	ret
	.cfi_endproc
.LFE6:
	.size	GC_init, .-GC_init
	.section	.rodata
.LC19:
	.string	"Collecting memory"
	.align 8
.LC20:
	.string	"Freeing chunk of memory at %p size %d\n"
	.text
	.globl	GC_collect
	.type	GC_collect, @function
GC_collect:
.LFB7:
	.loc 1 256 1
	.cfi_startproc
	endbr64
	pushq	%rbp
	.cfi_def_cfa_offset 16
	.cfi_offset 6, -16
	movq	%rsp, %rbp
	.cfi_def_cfa_register 6
	subq	$32, %rsp
	.loc 1 257 5
	leaq	.LC19(%rip), %rax
	movq	%rax, %rdi
	call	puts@PLT
	.loc 1 261 15
	movq	usedp(%rip), %rax
	.loc 1 261 8
	testq	%rax, %rax
	je	.L64
	.loc 1 264 5
	call	scan_register
	.loc 1 270 5
#APP
# 270 "garbage-collector.c" 1
	movq %rbp, %rax
# 0 "" 2
#NO_APP
	movq	%rax, -16(%rbp)
	.loc 1 277 16
	movq	usedp(%rip), %rax
	movq	%rax, -24(%rbp)
	.loc 1 277 29
	movq	usedp(%rip), %rax
	movq	8(%rax), %rax
	movq	%rax, %rdx
	movabsq	$281474976710652, %rax
	andq	%rdx, %rax
	.loc 1 277 27
	movq	%rax, -32(%rbp)
.L60:
	.loc 1 279 31
	movq	-32(%rbp), %rax
	movq	8(%rax), %rax
	.loc 1 279 38
	andl	$1, %eax
	.loc 1 279 12
	testq	%rax, %rax
	jne	.L61
	.loc 1 283 16
	movq	-32(%rbp), %rax
	movq	%rax, -8(%rbp)
	.loc 1 284 13
	movq	-8(%rbp), %rax
	movq	(%rax), %rdx
	movq	-8(%rbp), %rax
	movq	%rax, %rsi
	leaq	.LC20(%rip), %rax
	movq	%rax, %rdi
	movl	$0, %eax
	call	printf@PLT
	.loc 1 285 17
	movq	-32(%rbp), %rax
	movq	8(%rax), %rax
	movq	%rax, %rdx
	movabsq	$281474976710652, %rax
	andq	%rdx, %rax
	.loc 1 285 15
	movq	%rax, -32(%rbp)
	.loc 1 286 13
	movq	-8(%rbp), %rax
	movq	%rax, %rdi
	call	add_to_free_list
	.loc 1 288 23
	movq	usedp(%rip), %rax
	.loc 1 288 16
	cmpq	%rax, -8(%rbp)
	jne	.L62
	.loc 1 289 23
	movq	$0, usedp(%rip)
	.loc 1 290 17
	jmp	.L57
.L62:
	.loc 1 293 68
	movq	-24(%rbp), %rax
	movq	8(%rax), %rax
	.loc 1 293 75
	andl	$1, %eax
	movq	%rax, %rdx
	.loc 1 293 27
	movq	-32(%rbp), %rax
	.loc 1 293 44
	orq	%rdx, %rax
	movq	%rax, %rdx
	.loc 1 293 25
	movq	-24(%rbp), %rax
	movq	%rdx, 8(%rax)
	.loc 1 294 13
	jmp	.L60
.L61:
	.loc 1 296 37
	movq	-32(%rbp), %rax
	movq	8(%rax), %rax
	.loc 1 296 45
	andq	$-2, %rax
	movq	%rax, %rdx
	.loc 1 296 17
	movq	-32(%rbp), %rax
	movq	%rdx, 8(%rax)
	.loc 1 297 15
	movq	usedp(%rip), %rax
	.loc 1 297 12
	cmpq	%rax, -32(%rbp)
	je	.L65
	.loc 1 277 56
	movq	-32(%rbp), %rax
	movq	%rax, -24(%rbp)
	.loc 1 277 65
	movq	-32(%rbp), %rax
	movq	8(%rax), %rax
	movq	%rax, %rdx
	movabsq	$281474976710652, %rax
	andq	%rdx, %rax
	.loc 1 277 63
	movq	%rax, -32(%rbp)
	.loc 1 278 5
	jmp	.L60
.L64:
	.loc 1 262 9
	nop
	jmp	.L57
.L65:
	.loc 1 298 13
	nop
.L57:
	.loc 1 300 1
	leave
	.cfi_def_cfa 7, 8
	ret
	.cfi_endproc
.LFE7:
	.size	GC_collect, .-GC_collect
	.section	.rodata
.LC21:
	.string	"%d"
	.text
	.globl	dosomething
	.type	dosomething, @function
dosomething:
.LFB8:
	.loc 1 302 26
	.cfi_startproc
	endbr64
	pushq	%rbp
	.cfi_def_cfa_offset 16
	.cfi_offset 6, -16
	movq	%rsp, %rbp
	.cfi_def_cfa_register 6
	subq	$16, %rsp
	movq	%rdi, -8(%rbp)
	.loc 1 303 5
	movq	-8(%rbp), %rax
	movl	(%rax), %eax
	movl	%eax, %esi
	leaq	.LC21(%rip), %rax
	movq	%rax, %rdi
	movl	$0, %eax
	call	printf@PLT
	.loc 1 304 1
	nop
	leave
	.cfi_def_cfa 7, 8
	ret
	.cfi_endproc
.LFE8:
	.size	dosomething, .-dosomething
	.section	.rodata
.LC22:
	.string	"%p\n"
.LC23:
	.string	"First collection"
.LC24:
	.string	"Second collection"
	.text
	.globl	main
	.type	main, @function
main:
.LFB9:
	.loc 1 306 12
	.cfi_startproc
	endbr64
	pushq	%rbp
	.cfi_def_cfa_offset 16
	.cfi_offset 6, -16
	movq	%rsp, %rbp
	.cfi_def_cfa_register 6
	subq	$16, %rsp
	.loc 1 307 5
	leaq	usedp(%rip), %rax
	movq	%rax, %rsi
	leaq	.LC22(%rip), %rax
	movq	%rax, %rdi
	movl	$0, %eax
	call	printf@PLT
	.loc 1 308 5
	call	GC_init
	.loc 1 309 21
	movl	$4, %edi
	call	GC_malloc
	movq	%rax, -8(%rbp)
	.loc 1 310 5
	movl	$4, %edi
	call	GC_malloc
	.loc 1 311 14
	movq	-8(%rbp), %rax
	movl	$6, (%rax)
	.loc 1 313 5
	movq	-8(%rbp), %rax
	movq	%rax, %rsi
	leaq	.LC22(%rip), %rax
	movq	%rax, %rdi
	movl	$0, %eax
	call	printf@PLT
	.loc 1 315 5
	leaq	.LC23(%rip), %rax
	movq	%rax, %rdi
	call	puts@PLT
	.loc 1 316 5
	movq	-8(%rbp), %rax
	movq	%rax, %rdi
	call	dosomething
	.loc 1 317 5
	call	GC_collect
	.loc 1 318 5
	leaq	.LC24(%rip), %rax
	movq	%rax, %rdi
	call	puts@PLT
	.loc 1 319 13
	movq	$0, -8(%rbp)
	.loc 1 320 5
	call	GC_collect
	.loc 1 321 12
	movl	$0, %eax
	.loc 1 322 1
	leave
	.cfi_def_cfa 7, 8
	ret
	.cfi_endproc
.LFE9:
	.size	main, .-main
	.local	registers.2
	.comm	registers.2,128,32
	.local	initted.1
	.comm	initted.1,4,4
	.section	.rodata
	.align 8
	.type	__PRETTY_FUNCTION__.0, @object
	.size	__PRETTY_FUNCTION__.0, 8
__PRETTY_FUNCTION__.0:
	.string	"GC_init"
	.text
.Letext0:
	.file 2 "/usr/lib/gcc/x86_64-linux-gnu/11/include/stddef.h"
	.file 3 "/usr/include/x86_64-linux-gnu/bits/types.h"
	.file 4 "/usr/include/x86_64-linux-gnu/bits/types/struct_FILE.h"
	.file 5 "/usr/include/x86_64-linux-gnu/bits/types/FILE.h"
	.file 6 "/usr/include/unistd.h"
	.file 7 "/usr/include/stdio.h"
	.file 8 "/usr/include/assert.h"
	.section	.note.GNU-stack,"",@progbits
	.section	.note.gnu.property,"a"
	.align 8
	.long	1f - 0f
	.long	4f - 1f
	.long	5
0:
	.string	"GNU"
1:
	.align 8
	.long	0xc0000002
	.long	3f - 2f
2:
	.long	0x3
3:
	.align 8
4:
